target datalayout = "e-m:e-p270:32:32-p271:32:32-p272:64:64-i64:64-i128:128-f80:128-n8:16:32:64-S128"
target triple = "x86_64-pc-linux-gnu"

%struct.dt_pthread_mutex_t = type { %union.pthread_mutex_t }
%union.pthread_mutex_t = type { %struct.__pthread_mutex_s }
%struct.__pthread_mutex_s = type { i32, i32, i32, i32, i32, i16, i16, %struct.__pthread_internal_list }
%struct.__pthread_internal_list = type { ptr, ptr }
%struct.dt_iop_module_t = type { i32, ptr, ptr, ptr, ptr, ptr, ptr, ptr, ptr, ptr, ptr, ptr, ptr, ptr, ptr, ptr, ptr, ptr, ptr, ptr, ptr, ptr, ptr, ptr, ptr, ptr, ptr, ptr, ptr, ptr, ptr, ptr, ptr, ptr, ptr, ptr, ptr, ptr, ptr, ptr, ptr, ptr, ptr, ptr, ptr, ptr, ptr, ptr, ptr, ptr, ptr, ptr, ptr, ptr, ptr, ptr, ptr, [20 x i8], i32, i32, i32, i32, i32, i32, i32, [8 x i8], [4 x float], [4 x float], [4 x float], [4 x float], [4 x float], [4 x float], ptr, %struct.dt_dev_histogram_stats_t, [4 x i32], i32, i32, ptr, i32, i32, ptr, ptr, i32, ptr, %struct.dt_pthread_mutex_t, ptr, ptr, ptr, ptr, %struct.anon, ptr, ptr, ptr, ptr, ptr, ptr, ptr, i32, ptr, ptr, ptr, ptr, ptr, ptr, ptr, i32, ptr, i32, [128 x i8], i32, ptr, ptr, i32, [12 x i8] }
%struct.dt_dev_histogram_stats_t = type { i32, i64, i32, i32 }
%struct.anon = type { %struct.anon.0, %struct.anon.1 }
%struct.anon.0 = type { ptr, ptr }
%struct.anon.1 = type { ptr, i32 }
%struct.dt_iop_rgblevels_gui_data_t = type { %struct.dt_iop_rgblevels_params_t, ptr, ptr, ptr, ptr, ptr, ptr, i32, i32, float, float, float, float, [4 x float], i32, double, double, i32, i32, float, i32, float, ptr, ptr, ptr }
%struct.dt_iop_rgblevels_params_t = type { i32, i32, [3 x [3 x float]] }

; Function Attrs: nounwind uwtable
define internal void @_turn_select_region_off(ptr noundef %0) #0 {
  %2 = alloca ptr, align 8
  %3 = alloca ptr, align 8
  store ptr %0, ptr %2, align 8, !tbaa !6
  call void @llvm.lifetime.start.p0(i64 8, ptr %3) #13
  %4 = load ptr, ptr %2, align 8, !tbaa !6
  %5 = getelementptr inbounds nuw %struct.dt_iop_module_t, ptr %4, i32 0, i32 83
  %6 = load ptr, ptr %5, align 16, !tbaa !21
  store ptr %6, ptr %3, align 8, !tbaa !37
  %7 = load ptr, ptr %3, align 8, !tbaa !37
  %8 = icmp ne ptr %7, null
  br i1 %8, label %9, label %22

9:                                                ; preds = %1
  %10 = load ptr, ptr %3, align 8, !tbaa !37
  %11 = getelementptr inbounds nuw %struct.dt_iop_rgblevels_gui_data_t, ptr %10, i32 0, i32 8
  store i32 0, ptr %11, align 4, !tbaa !39
  %12 = load ptr, ptr %3, align 8, !tbaa !37
  %13 = getelementptr inbounds nuw %struct.dt_iop_rgblevels_gui_data_t, ptr %12, i32 0, i32 14
  store i32 0, ptr %13, align 8, !tbaa !44
  %14 = load ptr, ptr %3, align 8, !tbaa !37
  %15 = getelementptr inbounds nuw %struct.dt_iop_rgblevels_gui_data_t, ptr %14, i32 0, i32 6
  %16 = load ptr, ptr %15, align 8, !tbaa !148
  %17 = call i64 @gtk_toggle_button_get_type() #14
  %18 = call ptr @g_type_check_instance_cast(ptr noundef %16, i64 noundef %17)
  %19 = load ptr, ptr %3, align 8, !tbaa !37
  %20 = getelementptr inbounds nuw %struct.dt_iop_rgblevels_gui_data_t, ptr %19, i32 0, i32 8
  %21 = load i32, ptr %20, align 4, !tbaa !39
  call void @gtk_toggle_button_set_active(ptr noundef %18, i32 noundef %21)
  br label %22

22:                                               ; preds = %9, %1
  call void @llvm.lifetime.end.p0(i64 8, ptr %3) #13
  ret void
}

; Function Attrs: nounwind uwtable
define internal void @_turn_selregion_picker_off(ptr noundef %0) #0 {
  %2 = alloca ptr, align 8
  store ptr %0, ptr %2, align 8, !tbaa !6
  %3 = load ptr, ptr %2, align 8, !tbaa !6
  call void @_turn_select_region_off(ptr noundef %3)
  %4 = load ptr, ptr %2, align 8, !tbaa !6
  call void @dt_iop_color_picker_reset(ptr noundef %4, i32 noundef 1)
  ret void
}

; Function Attrs: nounwind uwtable
define i32 @button_pressed(ptr noundef %0, float noundef %1, float noundef %2, double noundef %3, i32 noundef %4, i32 noundef %5, i32 noundef %6, float noundef %7) #0 {
  %9 = alloca ptr, align 8
  %10 = alloca float, align 4
  %11 = alloca float, align 4
  %12 = alloca double, align 8
  %13 = alloca i32, align 4
  %14 = alloca i32, align 4
  %15 = alloca i32, align 4
  %16 = alloca float, align 4
  %17 = alloca i32, align 4
  %18 = alloca ptr, align 8
  %19 = alloca float, align 4
  %20 = alloca float, align 4
  store ptr %0, ptr %9, align 8, !tbaa !6
  store float %1, ptr %10, align 4, !tbaa !15
  store float %2, ptr %11, align 4, !tbaa !15
  store double %3, ptr %12, align 8, !tbaa !17
  store i32 %4, ptr %13, align 4, !tbaa !19
  store i32 %5, ptr %14, align 4, !tbaa !19
  store i32 %6, ptr %15, align 4, !tbaa !19
  store float %7, ptr %16, align 4, !tbaa !15
  call void @llvm.lifetime.start.p0(i64 4, ptr %17) #13
  store i32 0, ptr %17, align 4, !tbaa !19
  call void @llvm.lifetime.start.p0(i64 8, ptr %18) #13
  %21 = load ptr, ptr %9, align 8, !tbaa !6
  %22 = getelementptr inbounds nuw %struct.dt_iop_module_t, ptr %21, i32 0, i32 83
  %23 = load ptr, ptr %22, align 16, !tbaa !21
  store ptr %23, ptr %18, align 8, !tbaa !37
  %24 = load ptr, ptr %18, align 8, !tbaa !37
  %25 = icmp ne ptr %24, null
  br i1 %25, label %26, label %73

26:                                               ; preds = %8
  %27 = load ptr, ptr %18, align 8, !tbaa !37
  %28 = getelementptr inbounds nuw %struct.dt_iop_rgblevels_gui_data_t, ptr %27, i32 0, i32 8
  %29 = load i32, ptr %28, align 4, !tbaa !39
  %30 = icmp ne i32 %29, 0
  br i1 %30, label %31, label %73

31:                                               ; preds = %26
  %32 = load ptr, ptr %9, align 8, !tbaa !6
  %33 = getelementptr inbounds nuw %struct.dt_iop_module_t, ptr %32, i32 0, i32 78
  %34 = load i32, ptr %33, align 16, !tbaa !45
  %35 = icmp ne i32 %34, 0
  br i1 %35, label %36, label %73

36:                                               ; preds = %31
  %37 = load i32, ptr %13, align 4, !tbaa !19
  %38 = icmp eq i32 %37, 3
  br i1 %38, label %45, label %39

39:                                               ; preds = %36
  %40 = load i32, ptr %13, align 4, !tbaa !19
  %41 = icmp eq i32 %40, 1
  br i1 %41, label %42, label %47

42:                                               ; preds = %39
  %43 = load i32, ptr %14, align 4, !tbaa !19
  %44 = icmp eq i32 %43, 5
  br i1 %44, label %45, label %47

45:                                               ; preds = %42, %36
  %46 = load ptr, ptr %9, align 8, !tbaa !6
  call void @_turn_selregion_picker_off(ptr noundef %46)
  store i32 1, ptr %17, align 4, !tbaa !19
  br label %72

47:                                               ; preds = %42, %39
  %48 = load i32, ptr %13, align 4, !tbaa !19
  %49 = icmp eq i32 %48, 1
  br i1 %49, label %50, label %71

50:                                               ; preds = %47
  call void @llvm.lifetime.start.p0(i64 4, ptr %19) #13
  call void @llvm.lifetime.start.p0(i64 4, ptr %20) #13
  %51 = load ptr, ptr %9, align 8, !tbaa !6
  %52 = getelementptr inbounds nuw %struct.dt_iop_module_t, ptr %51, i32 0, i32 77
  %53 = load ptr, ptr %52, align 8, !tbaa !46
  %54 = call i32 @dt_dev_get_preview_size(ptr noundef %53, ptr noundef %19, ptr noundef %20)
  %55 = load float, ptr %10, align 4, !tbaa !15
  %56 = load float, ptr %19, align 4, !tbaa !15
  %57 = fmul reassoc nsz arcp contract afn float %55, %56
  %58 = load ptr, ptr %18, align 8, !tbaa !37
  %59 = getelementptr inbounds nuw %struct.dt_iop_rgblevels_gui_data_t, ptr %58, i32 0, i32 10
  store float %57, ptr %59, align 4, !tbaa !47
  %60 = load ptr, ptr %18, align 8, !tbaa !37
  %61 = getelementptr inbounds nuw %struct.dt_iop_rgblevels_gui_data_t, ptr %60, i32 0, i32 9
  store float %57, ptr %61, align 8, !tbaa !49
  %62 = load float, ptr %11, align 4, !tbaa !15
  %63 = load float, ptr %20, align 4, !tbaa !15
  %64 = fmul reassoc nsz arcp contract afn float %62, %63
  %65 = load ptr, ptr %18, align 8, !tbaa !37
  %66 = getelementptr inbounds nuw %struct.dt_iop_rgblevels_gui_data_t, ptr %65, i32 0, i32 12
  store float %64, ptr %66, align 4, !tbaa !48
  %67 = load ptr, ptr %18, align 8, !tbaa !37
  %68 = getelementptr inbounds nuw %struct.dt_iop_rgblevels_gui_data_t, ptr %67, i32 0, i32 11
  store float %64, ptr %68, align 8, !tbaa !50
  %69 = load ptr, ptr %18, align 8, !tbaa !37
  %70 = getelementptr inbounds nuw %struct.dt_iop_rgblevels_gui_data_t, ptr %69, i32 0, i32 14
  store i32 1, ptr %70, align 8, !tbaa !44
  store i32 1, ptr %17, align 4, !tbaa !19
  call void @llvm.lifetime.end.p0(i64 4, ptr %20) #13
  call void @llvm.lifetime.end.p0(i64 4, ptr %19) #13
  br label %71

71:                                               ; preds = %50, %47
  br label %72

72:                                               ; preds = %71, %45
  br label %73

73:                                               ; preds = %72, %31, %26, %8
  %74 = load i32, ptr %17, align 4, !tbaa !19
  call void @llvm.lifetime.end.p0(i64 8, ptr %18) #13
  call void @llvm.lifetime.end.p0(i64 4, ptr %17) #13
  ret i32 %74
}