; Function Attrs: nounwind uwtable
define range(i32 0, 2) i32 @button_pressed(ptr noundef %0, float noundef %1, float noundef %2, double noundef %3, i32 noundef %4, i32 noundef %5, i32 noundef %6, float noundef %7) local_unnamed_addr #1 {
  %9 = alloca float, align 4
  %10 = alloca float, align 4
  %11 = getelementptr inbounds nuw i8, ptr %0, i64 704
  %12 = load ptr, ptr %11, align 16, !tbaa !6
  %.not = icmp eq ptr %12, null
  br i1 %.not, label %44, label %13

13:                                               ; preds = %8
  %14 = getelementptr inbounds nuw i8, ptr %12, i64 100
  %15 = load i32, ptr %14, align 4, !tbaa !27
  %.not20 = icmp eq i32 %15, 0
  br i1 %.not20, label %44, label %16

16:                                               ; preds = %13
  %17 = getelementptr inbounds nuw i8, ptr %0, i64 672
  %18 = load i32, ptr %17, align 16, !tbaa !35
  %.not21 = icmp eq i32 %18, 0
  br i1 %.not21, label %44, label %19

19:                                               ; preds = %16
  %20 = icmp eq i32 %4, 3
  br i1 %20, label %_turn_selregion_picker_off.exit, label %21

21:                                               ; preds = %19
  %22 = icmp eq i32 %4, 1
  %23 = icmp eq i32 %5, 5
  %or.cond = and i1 %22, %23
  br i1 %or.cond, label %_turn_selregion_picker_off.exit, label %30

_turn_selregion_picker_off.exit:                  ; preds = %21, %19
  store i32 0, ptr %14, align 4, !tbaa !27
  %24 = getelementptr inbounds nuw i8, ptr %12, i64 136
  store i32 0, ptr %24, align 8, !tbaa !34
  %25 = getelementptr inbounds nuw i8, ptr %12, i64 88
  %26 = load ptr, ptr %25, align 8, !tbaa !113
  %27 = tail call i64 @gtk_toggle_button_get_type() #23
  %28 = tail call ptr @g_type_check_instance_cast(ptr noundef %26, i64 noundef %27) #21
  %29 = load i32, ptr %14, align 4, !tbaa !27
  tail call void @gtk_toggle_button_set_active(ptr noundef %28, i32 noundef %29) #21
  tail call void @dt_iop_color_picker_reset(ptr noundef nonnull %0, i32 noundef 1) #21
  br label %44

30:                                               ; preds = %21
  br i1 %22, label %31, label %44

31:                                               ; preds = %30
  call void @llvm.lifetime.start.p0(i64 4, ptr nonnull %9) #21
  call void @llvm.lifetime.start.p0(i64 4, ptr nonnull %10) #21
  %32 = getelementptr inbounds nuw i8, ptr %0, i64 664
  %33 = load ptr, ptr %32, align 8, !tbaa !36
  %34 = call i32 @dt_dev_get_preview_size(ptr noundef %33, ptr noundef nonnull %9, ptr noundef nonnull %10) #21
  %35 = load float, ptr %9, align 4, !tbaa !37
  %36 = fmul reassoc nsz arcp contract afn float %35, %1
  %37 = getelementptr inbounds nuw i8, ptr %12, i64 108
  store float %36, ptr %37, align 4, !tbaa !38
  %38 = getelementptr inbounds nuw i8, ptr %12, i64 104
  store float %36, ptr %38, align 8, !tbaa !40
  %39 = load float, ptr %10, align 4, !tbaa !37
  %40 = fmul reassoc nsz arcp contract afn float %39, %2
  %41 = getelementptr inbounds nuw i8, ptr %12, i64 116
  store float %40, ptr %41, align 4, !tbaa !39
  %42 = getelementptr inbounds nuw i8, ptr %12, i64 112
  store float %40, ptr %42, align 8, !tbaa !41
  %43 = getelementptr inbounds nuw i8, ptr %12, i64 136
  store i32 1, ptr %43, align 8, !tbaa !34
  call void @llvm.lifetime.end.p0(i64 4, ptr nonnull %10) #21
  call void @llvm.lifetime.end.p0(i64 4, ptr nonnull %9) #21
  br label %44

44:                                               ; preds = %_turn_selregion_picker_off.exit, %31, %30, %16, %13, %8
  %.0 = phi i32 [ 1, %_turn_selregion_picker_off.exit ], [ 1, %31 ], [ 0, %30 ], [ 0, %16 ], [ 0, %13 ], [ 0, %8 ]
  ret i32 %.0
}